; Function Attrs: mustprogress nounwind uwtable
define hidden void @_ZN10ODDLParser7Context5clearEv(ptr noundef nonnull align 8 captures(none) dereferenceable(8) %0) local_unnamed_addr #1 align 2 {
  %2 = load ptr, ptr %0, align 8
  %3 = icmp eq ptr %2, null
  br i1 %3, label %5, label %4

4:                                                ; preds = %1
  tail call void @_ZN10ODDLParser7DDLNodeD1Ev(ptr noundef nonnull align 8 dereferenceable(136) %2) #12
  tail call void @_ZdlPvm(ptr noundef nonnull %2, i64 noundef 136) #13
  br label %5

5:                                                ; preds = %4, %1
  store ptr null, ptr %0, align 8
  ret void
}